; Function Attrs: mustprogress uwtable
define void @_ZN5faiss18BlockInvertedLists6resizeEmm(ptr nocapture noundef nonnull readonly align 8 dereferenceable(104) %0, i64 noundef %1, i64 noundef %2) unnamed_addr #3 align 2 personality ptr @__gxx_personality_v0 {
  %4 = getelementptr inbounds i8, ptr %0, i64 80
  %5 = load ptr, ptr %4, align 8
  %6 = getelementptr inbounds %"class.std::vector.5", ptr %5, i64 %1
  %7 = getelementptr inbounds i8, ptr %6, i64 8
  %8 = load ptr, ptr %7, align 8
  %9 = load ptr, ptr %6, align 8
  %10 = ptrtoint ptr %8 to i64
  %11 = ptrtoint ptr %9 to i64
  %12 = sub i64 %10, %11
  %13 = ashr exact i64 %12, 3
  %14 = icmp ult i64 %13, %2
  br i1 %14, label %15, label %17

15:                                               ; preds = %3
  %16 = sub i64 %2, %13
  tail call void @_ZNSt6vectorIlSaIlEE17_M_default_appendEm(ptr noundef nonnull align 8 dereferenceable(24) %6, i64 noundef %16)
  br label %_ZNSt6vectorIlSaIlEE6resizeEm.exit

17:                                               ; preds = %3
  %18 = icmp ugt i64 %13, %2
  br i1 %18, label %19, label %_ZNSt6vectorIlSaIlEE6resizeEm.exit

19:                                               ; preds = %17
  %20 = getelementptr inbounds i64, ptr %9, i64 %2
  %.not.i.i = icmp eq ptr %8, %20
  br i1 %.not.i.i, label %_ZNSt6vectorIlSaIlEE6resizeEm.exit, label %21

21:                                               ; preds = %19
  store ptr %20, ptr %7, align 8
  br label %_ZNSt6vectorIlSaIlEE6resizeEm.exit

_ZNSt6vectorIlSaIlEE6resizeEm.exit:               ; preds = %15, %17, %19, %21
  %22 = getelementptr inbounds i8, ptr %0, i64 56
  %23 = load ptr, ptr %22, align 8
  %24 = getelementptr inbounds %"struct.faiss::AlignedTable", ptr %23, i64 %1
  %25 = getelementptr inbounds i8, ptr %24, i64 16
  %26 = load i64, ptr %25, align 8
  %27 = getelementptr inbounds i8, ptr %0, i64 32
  %28 = load i64, ptr %27, align 8
  %29 = add i64 %2, -1
  %30 = add i64 %29, %28
  %31 = udiv i64 %30, %28
  %32 = getelementptr inbounds i8, ptr %0, i64 40
  %33 = load i64, ptr %32, align 8
  %34 = mul i64 %33, %31
  tail call void @_ZN5faiss12AlignedTableIhLi32EE6resizeEm(ptr noundef nonnull align 8 dereferenceable(24) %24, i64 noundef %34)
  %35 = icmp ult i64 %26, %34
  br i1 %35, label %36, label %42

36:                                               ; preds = %_ZNSt6vectorIlSaIlEE6resizeEm.exit
  %37 = load ptr, ptr %22, align 8
  %38 = getelementptr inbounds %"struct.faiss::AlignedTable", ptr %37, i64 %1
  %39 = load ptr, ptr %38, align 8
  %40 = getelementptr inbounds i8, ptr %39, i64 %26
  %41 = sub i64 %34, %26
  tail call void @llvm.memset.p0.i64(ptr align 1 %40, i8 0, i64 %41, i1 false)
  br label %42

42:                                               ; preds = %36, %_ZNSt6vectorIlSaIlEE6resizeEm.exit
  ret void
}